; Function Attrs: mustprogress uwtable
define noundef i64 @_ZNK5arrow12BooleanArray10true_countEv(ptr noundef nonnull readonly align 8 captures(none) dereferenceable(40) %0) local_unnamed_addr #1 align 2 personality ptr @__gxx_personality_v0 {
  %2 = getelementptr inbounds nuw i8, ptr %0, i64 8
  %3 = load ptr, ptr %2, align 8, !tbaa !53
  %4 = getelementptr inbounds nuw i8, ptr %3, i64 24
  %5 = load atomic i64, ptr %4 seq_cst, align 8
  %.not.i = icmp eq i64 %5, 0
  br i1 %.not.i, label %_ZNK5arrow9ArrayData12MayHaveNullsEv.exit.thread, label %_ZNK5arrow9ArrayData12MayHaveNullsEv.exit

_ZNK5arrow9ArrayData12MayHaveNullsEv.exit:        ; preds = %1
  %6 = getelementptr inbounds nuw i8, ptr %3, i64 40
  %7 = load ptr, ptr %6, align 8, !tbaa !46
  %8 = load ptr, ptr %7, align 8, !tbaa !43
  %.not = icmp eq ptr %8, null
  br i1 %.not, label %_ZNK5arrow9ArrayData12MayHaveNullsEv.exit.thread, label %9

9:                                                ; preds = %_ZNK5arrow9ArrayData12MayHaveNullsEv.exit
  %10 = load ptr, ptr %2, align 8, !tbaa !53
  %11 = getelementptr inbounds nuw i8, ptr %10, i64 40
  %12 = load ptr, ptr %11, align 8, !tbaa !46
  %13 = load ptr, ptr %12, align 8, !tbaa !43
  %14 = getelementptr inbounds nuw i8, ptr %13, i64 9
  %15 = load i8, ptr %14, align 1, !tbaa !56, !range !65, !noundef !66
  %16 = trunc nuw i8 %15 to i1
  %17 = getelementptr inbounds nuw i8, ptr %13, i64 16
  %18 = load ptr, ptr %17, align 8
  %19 = select i1 %16, ptr %18, ptr null, !prof !94
  %20 = getelementptr inbounds nuw i8, ptr %10, i64 32
  %21 = load i64, ptr %20, align 8, !tbaa !111
  %22 = getelementptr inbounds nuw i8, ptr %12, i64 16
  %23 = load ptr, ptr %22, align 8, !tbaa !43
  %24 = getelementptr inbounds nuw i8, ptr %23, i64 9
  %25 = load i8, ptr %24, align 1, !tbaa !56, !range !65, !noundef !66
  %26 = trunc nuw i8 %25 to i1
  %27 = getelementptr inbounds nuw i8, ptr %23, i64 16
  %28 = load ptr, ptr %27, align 8
  %29 = select i1 %26, ptr %28, ptr null, !prof !94
  %30 = getelementptr inbounds nuw i8, ptr %10, i64 16
  %31 = load i64, ptr %30, align 8, !tbaa !95
  %32 = tail call noundef i64 @_ZN5arrow8internal15CountAndSetBitsEPKhlS2_ll(ptr noundef %19, i64 noundef %21, ptr noundef %29, i64 noundef %21, i64 noundef %31)
  br label %49

_ZNK5arrow9ArrayData12MayHaveNullsEv.exit.thread: ; preds = %1, %_ZNK5arrow9ArrayData12MayHaveNullsEv.exit
  %33 = load ptr, ptr %2, align 8, !tbaa !53
  %34 = getelementptr inbounds nuw i8, ptr %33, i64 40
  %35 = load ptr, ptr %34, align 8, !tbaa !46
  %36 = getelementptr inbounds nuw i8, ptr %35, i64 16
  %37 = load ptr, ptr %36, align 8, !tbaa !43
  %38 = getelementptr inbounds nuw i8, ptr %37, i64 9
  %39 = load i8, ptr %38, align 1, !tbaa !56, !range !65, !noundef !66
  %40 = trunc nuw i8 %39 to i1
  %41 = getelementptr inbounds nuw i8, ptr %37, i64 16
  %42 = load ptr, ptr %41, align 8
  %43 = select i1 %40, ptr %42, ptr null, !prof !94
  %44 = getelementptr inbounds nuw i8, ptr %33, i64 32
  %45 = load i64, ptr %44, align 8, !tbaa !111
  %46 = getelementptr inbounds nuw i8, ptr %33, i64 16
  %47 = load i64, ptr %46, align 8, !tbaa !95
  %48 = tail call noundef i64 @_ZN5arrow8internal12CountSetBitsEPKhll(ptr noundef %43, i64 noundef %45, i64 noundef %47)
  br label %49

49:                                               ; preds = %_ZNK5arrow9ArrayData12MayHaveNullsEv.exit.thread, %9
  %.0 = phi i64 [ %32, %9 ], [ %48, %_ZNK5arrow9ArrayData12MayHaveNullsEv.exit.thread ]
  ret i64 %.0
}